; Function Attrs: mustprogress uwtable
define hidden void @_ZN6google8protobuf2io25CopyingInputStreamAdaptor22AllocateBufferIfNeededEv(ptr noundef nonnull align 8 captures(none) dereferenceable(52) %0) local_unnamed_addr #6 align 2 {
  %2 = getelementptr inbounds nuw i8, ptr %0, i64 32
  %3 = load ptr, ptr %2, align 8, !tbaa !53
  %4 = icmp eq ptr %3, null
  br i1 %4, label %_ZNSt10unique_ptrIA_hSt14default_deleteIS0_EE5resetIPhvEEvT_.exit, label %9

_ZNSt10unique_ptrIA_hSt14default_deleteIS0_EE5resetIPhvEEvT_.exit: ; preds = %1
  %5 = getelementptr inbounds nuw i8, ptr %0, i64 40
  %6 = load i32, ptr %5, align 8, !tbaa !48
  %narrow = tail call i32 @llvm.smax.i32(i32 %6, i32 -1)
  %7 = sext i32 %narrow to i64
  %8 = tail call noalias noundef nonnull ptr @_Znam(i64 noundef %7) #21
  store ptr %8, ptr %2, align 8, !tbaa !53
  br label %9

9:                                                ; preds = %_ZNSt10unique_ptrIA_hSt14default_deleteIS0_EE5resetIPhvEEvT_.exit, %1
  ret void
}